target datalayout = "e-m:e-p270:32:32-p271:32:32-p272:64:64-i64:64-i128:128-f80:128-n8:16:32:64-S128"
target triple = "x86_64-unknown-linux-gnu"

%"class.rocksdb::Arena" = type { %"class.rocksdb::Allocator", [8 x i8], [2048 x i8], i64, %"class.std::deque", %"class.std::deque.0", i64, ptr, ptr, i64, i64, i64, ptr }
%"class.rocksdb::Allocator" = type { ptr }
%"class.std::deque" = type { %"class.std::_Deque_base" }
%"class.std::_Deque_base" = type { %"struct.std::_Deque_base<std::unique_ptr<char[]>, std::allocator<std::unique_ptr<char[]>>>::_Deque_impl" }
%"struct.std::_Deque_base<std::unique_ptr<char[]>, std::allocator<std::unique_ptr<char[]>>>::_Deque_impl" = type { %"struct.std::_Deque_base<std::unique_ptr<char[]>, std::allocator<std::unique_ptr<char[]>>>::_Deque_impl_data" }
%"struct.std::_Deque_base<std::unique_ptr<char[]>, std::allocator<std::unique_ptr<char[]>>>::_Deque_impl_data" = type { ptr, i64, %"struct.std::_Deque_iterator", %"struct.std::_Deque_iterator" }
%"struct.std::_Deque_iterator" = type { ptr, ptr, ptr, ptr }
%"class.std::deque.0" = type { %"class.std::_Deque_base.1" }
%"class.std::_Deque_base.1" = type { %"struct.std::_Deque_base<rocksdb::MemMapping, std::allocator<rocksdb::MemMapping>>::_Deque_impl" }
%"struct.std::_Deque_base<rocksdb::MemMapping, std::allocator<rocksdb::MemMapping>>::_Deque_impl" = type { %"struct.std::_Deque_base<rocksdb::MemMapping, std::allocator<rocksdb::MemMapping>>::_Deque_impl_data" }
%"struct.std::_Deque_base<rocksdb::MemMapping, std::allocator<rocksdb::MemMapping>>::_Deque_impl_data" = type { ptr, i64, %"struct.std::_Deque_iterator.5", %"struct.std::_Deque_iterator.5" }
%"struct.std::_Deque_iterator.5" = type { ptr, ptr, ptr, ptr }
%"class.rocksdb::MemMapping" = type { ptr, i64 }

; Function Attrs: mustprogress nounwind uwtable
define linkonce_odr noundef i64 @_ZSt16__deque_buf_sizem(i64 noundef %__size) #1 comdat {
entry:
  %__size.addr = alloca i64, align 8
  store i64 %__size, ptr %__size.addr, align 8
  %0 = load i64, ptr %__size.addr, align 8
  %cmp = icmp ult i64 %0, 512
  br i1 %cmp, label %cond.true, label %cond.false

cond.true:                                        ; preds = %entry
  %1 = load i64, ptr %__size.addr, align 8
  %div = udiv i64 512, %1
  br label %cond.end

cond.false:                                       ; preds = %entry
  br label %cond.end

cond.end:                                         ; preds = %cond.false, %cond.true
  %cond = phi i64 [ %div, %cond.true ], [ 1, %cond.false ]
  ret i64 %cond
}

; Function Attrs: mustprogress nounwind uwtable
define linkonce_odr noundef i64 @_ZNSt15_Deque_iteratorIN7rocksdb10MemMappingERS1_PS1_E14_S_buffer_sizeEv() #1 comdat align 2 {
entry:
  %call = call noundef i64 @_ZSt16__deque_buf_sizem(i64 noundef 16)
  ret i64 %call
}

; Function Attrs: mustprogress nounwind uwtable
define linkonce_odr void @_ZNSt15_Deque_iteratorIN7rocksdb10MemMappingERS1_PS1_E11_M_set_nodeEPS3_(ptr noundef nonnull align 8 dereferenceable(32) %this, ptr noundef %__new_node) #1 comdat align 2 {
entry:
  %this.addr = alloca ptr, align 8
  %__new_node.addr = alloca ptr, align 8
  store ptr %this, ptr %this.addr, align 8
  store ptr %__new_node, ptr %__new_node.addr, align 8
  %this1 = load ptr, ptr %this.addr, align 8
  %0 = load ptr, ptr %__new_node.addr, align 8
  %_M_node = getelementptr inbounds %"struct.std::_Deque_iterator.5", ptr %this1, i32 0, i32 3
  store ptr %0, ptr %_M_node, align 8
  %1 = load ptr, ptr %__new_node.addr, align 8
  %2 = load ptr, ptr %1, align 8
  %_M_first = getelementptr inbounds %"struct.std::_Deque_iterator.5", ptr %this1, i32 0, i32 1
  store ptr %2, ptr %_M_first, align 8
  %_M_first2 = getelementptr inbounds %"struct.std::_Deque_iterator.5", ptr %this1, i32 0, i32 1
  %3 = load ptr, ptr %_M_first2, align 8
  %call = call noundef i64 @_ZNSt15_Deque_iteratorIN7rocksdb10MemMappingERS1_PS1_E14_S_buffer_sizeEv() #11
  %add.ptr = getelementptr inbounds %"class.rocksdb::MemMapping", ptr %3, i64 %call
  %_M_last = getelementptr inbounds %"struct.std::_Deque_iterator.5", ptr %this1, i32 0, i32 2
  store ptr %add.ptr, ptr %_M_last, align 8
  ret void
}

; Function Attrs: mustprogress nounwind uwtable
define linkonce_odr void @_ZNSt15_Deque_iteratorIN7rocksdb10MemMappingERS1_PS1_EC2ERKS4_(ptr noundef nonnull align 8 dereferenceable(32) %this, ptr noundef nonnull align 8 dereferenceable(32) %__x) unnamed_addr #1 comdat align 2 {
entry:
  %this.addr = alloca ptr, align 8
  %__x.addr = alloca ptr, align 8
  store ptr %this, ptr %this.addr, align 8
  store ptr %__x, ptr %__x.addr, align 8
  %this1 = load ptr, ptr %this.addr, align 8
  %_M_cur = getelementptr inbounds %"struct.std::_Deque_iterator.5", ptr %this1, i32 0, i32 0
  %0 = load ptr, ptr %__x.addr, align 8
  %_M_cur2 = getelementptr inbounds %"struct.std::_Deque_iterator.5", ptr %0, i32 0, i32 0
  %1 = load ptr, ptr %_M_cur2, align 8
  store ptr %1, ptr %_M_cur, align 8
  %_M_first = getelementptr inbounds %"struct.std::_Deque_iterator.5", ptr %this1, i32 0, i32 1
  %2 = load ptr, ptr %__x.addr, align 8
  %_M_first3 = getelementptr inbounds %"struct.std::_Deque_iterator.5", ptr %2, i32 0, i32 1
  %3 = load ptr, ptr %_M_first3, align 8
  store ptr %3, ptr %_M_first, align 8
  %_M_last = getelementptr inbounds %"struct.std::_Deque_iterator.5", ptr %this1, i32 0, i32 2
  %4 = load ptr, ptr %__x.addr, align 8
  %_M_last4 = getelementptr inbounds %"struct.std::_Deque_iterator.5", ptr %4, i32 0, i32 2
  %5 = load ptr, ptr %_M_last4, align 8
  store ptr %5, ptr %_M_last, align 8
  %_M_node = getelementptr inbounds %"struct.std::_Deque_iterator.5", ptr %this1, i32 0, i32 3
  %6 = load ptr, ptr %__x.addr, align 8
  %_M_node5 = getelementptr inbounds %"struct.std::_Deque_iterator.5", ptr %6, i32 0, i32 3
  %7 = load ptr, ptr %_M_node5, align 8
  store ptr %7, ptr %_M_node, align 8
  ret void
}

; Function Attrs: mustprogress nounwind uwtable
define linkonce_odr noundef nonnull align 8 dereferenceable(16) ptr @_ZNKSt15_Deque_iteratorIN7rocksdb10MemMappingERS1_PS1_EdeEv(ptr noundef nonnull align 8 dereferenceable(32) %this) #1 comdat align 2 {
entry:
  %this.addr = alloca ptr, align 8
  store ptr %this, ptr %this.addr, align 8
  %this1 = load ptr, ptr %this.addr, align 8
  %_M_cur = getelementptr inbounds %"struct.std::_Deque_iterator.5", ptr %this1, i32 0, i32 0
  %0 = load ptr, ptr %_M_cur, align 8
  ret ptr %0
}

; Function Attrs: mustprogress nounwind uwtable
define linkonce_odr noundef nonnull align 8 dereferenceable(32) ptr @_ZNSt15_Deque_iteratorIN7rocksdb10MemMappingERS1_PS1_EmmEv(ptr noundef nonnull align 8 dereferenceable(32) %this) #1 comdat align 2 {
entry:
  %this.addr = alloca ptr, align 8
  store ptr %this, ptr %this.addr, align 8
  %this1 = load ptr, ptr %this.addr, align 8
  %_M_cur = getelementptr inbounds %"struct.std::_Deque_iterator.5", ptr %this1, i32 0, i32 0
  %0 = load ptr, ptr %_M_cur, align 8
  %_M_first = getelementptr inbounds %"struct.std::_Deque_iterator.5", ptr %this1, i32 0, i32 1
  %1 = load ptr, ptr %_M_first, align 8
  %cmp = icmp eq ptr %0, %1
  br i1 %cmp, label %if.then, label %if.end

if.then:                                          ; preds = %entry
  %_M_node = getelementptr inbounds %"struct.std::_Deque_iterator.5", ptr %this1, i32 0, i32 3
  %2 = load ptr, ptr %_M_node, align 8
  %add.ptr = getelementptr inbounds ptr, ptr %2, i64 -1
  call void @_ZNSt15_Deque_iteratorIN7rocksdb10MemMappingERS1_PS1_E11_M_set_nodeEPS3_(ptr noundef nonnull align 8 dereferenceable(32) %this1, ptr noundef %add.ptr) #11
  %_M_last = getelementptr inbounds %"struct.std::_Deque_iterator.5", ptr %this1, i32 0, i32 2
  %3 = load ptr, ptr %_M_last, align 8
  %_M_cur2 = getelementptr inbounds %"struct.std::_Deque_iterator.5", ptr %this1, i32 0, i32 0
  store ptr %3, ptr %_M_cur2, align 8
  br label %if.end

if.end:                                           ; preds = %if.then, %entry
  %_M_cur3 = getelementptr inbounds %"struct.std::_Deque_iterator.5", ptr %this1, i32 0, i32 0
  %4 = load ptr, ptr %_M_cur3, align 8
  %incdec.ptr = getelementptr inbounds %"class.rocksdb::MemMapping", ptr %4, i32 -1
  store ptr %incdec.ptr, ptr %_M_cur3, align 8
  ret ptr %this1
}

; Function Attrs: mustprogress nounwind uwtable
define linkonce_odr void @_ZNSt5dequeIN7rocksdb10MemMappingESaIS1_EE3endEv(ptr noalias sret(%"struct.std::_Deque_iterator.5") align 8 %agg.result, ptr noundef nonnull align 8 dereferenceable(80) %this) #1 comdat align 2 {
entry:
  %result.ptr = alloca ptr, align 8
  %this.addr = alloca ptr, align 8
  store ptr %agg.result, ptr %result.ptr, align 8
  store ptr %this, ptr %this.addr, align 8
  %this1 = load ptr, ptr %this.addr, align 8
  %_M_impl = getelementptr inbounds %"class.std::_Deque_base.1", ptr %this1, i32 0, i32 0
  %_M_finish = getelementptr inbounds %"struct.std::_Deque_base<rocksdb::MemMapping, std::allocator<rocksdb::MemMapping>>::_Deque_impl_data", ptr %_M_impl, i32 0, i32 3
  call void @_ZNSt15_Deque_iteratorIN7rocksdb10MemMappingERS1_PS1_EC2ERKS4_(ptr noundef nonnull align 8 dereferenceable(32) %agg.result, ptr noundef nonnull align 8 dereferenceable(32) %_M_finish) #11
  ret void
}

; Function Attrs: mustprogress nounwind uwtable
define linkonce_odr void @_ZNSt15__new_allocatorIN7rocksdb10MemMappingEE9constructIS1_JS1_EEEvPT_DpOT0_(ptr noundef nonnull align 1 dereferenceable(1) %this, ptr noundef %__p, ptr noundef nonnull align 8 dereferenceable(16) %__args) #1 comdat align 2 {
entry:
  %this.addr = alloca ptr, align 8
  %__p.addr = alloca ptr, align 8
  %__args.addr = alloca ptr, align 8
  store ptr %this, ptr %this.addr, align 8
  store ptr %__p, ptr %__p.addr, align 8
  store ptr %__args, ptr %__args.addr, align 8
  %0 = load ptr, ptr %__p.addr, align 8
  %1 = load ptr, ptr %__args.addr, align 8
  call void @_ZN7rocksdb10MemMappingC1EOS0_(ptr noundef nonnull align 8 dereferenceable(16) %0, ptr noundef nonnull align 8 dereferenceable(16) %1) #11
  ret void
}

; Function Attrs: mustprogress nounwind uwtable
define linkonce_odr noundef nonnull align 8 dereferenceable(16) ptr @_ZNSt5dequeIN7rocksdb10MemMappingESaIS1_EE4backEv(ptr noundef nonnull align 8 dereferenceable(80) %this) #1 comdat align 2 {
entry:
  %this.addr = alloca ptr, align 8
  %__tmp = alloca %"struct.std::_Deque_iterator.5", align 8
  store ptr %this, ptr %this.addr, align 8
  %this1 = load ptr, ptr %this.addr, align 8
  call void @_ZNSt5dequeIN7rocksdb10MemMappingESaIS1_EE3endEv(ptr sret(%"struct.std::_Deque_iterator.5") align 8 %__tmp, ptr noundef nonnull align 8 dereferenceable(80) %this1) #11
  %call = call noundef nonnull align 8 dereferenceable(32) ptr @_ZNSt15_Deque_iteratorIN7rocksdb10MemMappingERS1_PS1_EmmEv(ptr noundef nonnull align 8 dereferenceable(32) %__tmp) #11
  %call2 = call noundef nonnull align 8 dereferenceable(16) ptr @_ZNKSt15_Deque_iteratorIN7rocksdb10MemMappingERS1_PS1_EdeEv(ptr noundef nonnull align 8 dereferenceable(32) %__tmp) #11
  ret ptr %call2
}

; Function Attrs: mustprogress nounwind uwtable
define linkonce_odr void @_ZNSt16allocator_traitsISaIN7rocksdb10MemMappingEEE9constructIS1_JS1_EEEvRS2_PT_DpOT0_(ptr noundef nonnull align 1 dereferenceable(1) %__a, ptr noundef %__p, ptr noundef nonnull align 8 dereferenceable(16) %__args) #1 comdat align 2 {
entry:
  %__a.addr = alloca ptr, align 8
  %__p.addr = alloca ptr, align 8
  %__args.addr = alloca ptr, align 8
  store ptr %__a, ptr %__a.addr, align 8
  store ptr %__p, ptr %__p.addr, align 8
  store ptr %__args, ptr %__args.addr, align 8
  %0 = load ptr, ptr %__a.addr, align 8
  %1 = load ptr, ptr %__p.addr, align 8
  %2 = load ptr, ptr %__args.addr, align 8
  call void @_ZNSt15__new_allocatorIN7rocksdb10MemMappingEE9constructIS1_JS1_EEEvPT_DpOT0_(ptr noundef nonnull align 1 dereferenceable(1) %0, ptr noundef %1, ptr noundef nonnull align 8 dereferenceable(16) %2) #11
  ret void
}

; Function Attrs: mustprogress uwtable
define linkonce_odr noundef nonnull align 8 dereferenceable(16) ptr @_ZNSt5dequeIN7rocksdb10MemMappingESaIS1_EE12emplace_backIJS1_EEERS1_DpOT_(ptr noundef nonnull align 8 dereferenceable(80) %this, ptr noundef nonnull align 8 dereferenceable(16) %__args) #0 comdat align 2 {
entry:
  %this.addr = alloca ptr, align 8
  %__args.addr = alloca ptr, align 8
  store ptr %this, ptr %this.addr, align 8
  store ptr %__args, ptr %__args.addr, align 8
  %this1 = load ptr, ptr %this.addr, align 8
  %_M_impl = getelementptr inbounds %"class.std::_Deque_base.1", ptr %this1, i32 0, i32 0
  %_M_finish = getelementptr inbounds %"struct.std::_Deque_base<rocksdb::MemMapping, std::allocator<rocksdb::MemMapping>>::_Deque_impl_data", ptr %_M_impl, i32 0, i32 3
  %_M_cur = getelementptr inbounds %"struct.std::_Deque_iterator.5", ptr %_M_finish, i32 0, i32 0
  %0 = load ptr, ptr %_M_cur, align 8
  %_M_impl2 = getelementptr inbounds %"class.std::_Deque_base.1", ptr %this1, i32 0, i32 0
  %_M_finish3 = getelementptr inbounds %"struct.std::_Deque_base<rocksdb::MemMapping, std::allocator<rocksdb::MemMapping>>::_Deque_impl_data", ptr %_M_impl2, i32 0, i32 3
  %_M_last = getelementptr inbounds %"struct.std::_Deque_iterator.5", ptr %_M_finish3, i32 0, i32 2
  %1 = load ptr, ptr %_M_last, align 8
  %add.ptr = getelementptr inbounds %"class.rocksdb::MemMapping", ptr %1, i64 -1
  %cmp = icmp ne ptr %0, %add.ptr
  br i1 %cmp, label %if.then, label %if.else

if.then:                                          ; preds = %entry
  %_M_impl4 = getelementptr inbounds %"class.std::_Deque_base.1", ptr %this1, i32 0, i32 0
  %_M_impl5 = getelementptr inbounds %"class.std::_Deque_base.1", ptr %this1, i32 0, i32 0
  %_M_finish6 = getelementptr inbounds %"struct.std::_Deque_base<rocksdb::MemMapping, std::allocator<rocksdb::MemMapping>>::_Deque_impl_data", ptr %_M_impl5, i32 0, i32 3
  %_M_cur7 = getelementptr inbounds %"struct.std::_Deque_iterator.5", ptr %_M_finish6, i32 0, i32 0
  %2 = load ptr, ptr %_M_cur7, align 8
  %3 = load ptr, ptr %__args.addr, align 8
  call void @_ZNSt16allocator_traitsISaIN7rocksdb10MemMappingEEE9constructIS1_JS1_EEEvRS2_PT_DpOT0_(ptr noundef nonnull align 1 dereferenceable(1) %_M_impl4, ptr noundef %2, ptr noundef nonnull align 8 dereferenceable(16) %3) #11
  %_M_impl8 = getelementptr inbounds %"class.std::_Deque_base.1", ptr %this1, i32 0, i32 0
  %_M_finish9 = getelementptr inbounds %"struct.std::_Deque_base<rocksdb::MemMapping, std::allocator<rocksdb::MemMapping>>::_Deque_impl_data", ptr %_M_impl8, i32 0, i32 3
  %_M_cur10 = getelementptr inbounds %"struct.std::_Deque_iterator.5", ptr %_M_finish9, i32 0, i32 0
  %4 = load ptr, ptr %_M_cur10, align 8
  %incdec.ptr = getelementptr inbounds %"class.rocksdb::MemMapping", ptr %4, i32 1
  store ptr %incdec.ptr, ptr %_M_cur10, align 8
  br label %if.end

if.else:                                          ; preds = %entry
  %5 = load ptr, ptr %__args.addr, align 8
  call void @_ZNSt5dequeIN7rocksdb10MemMappingESaIS1_EE16_M_push_back_auxIJS1_EEEvDpOT_(ptr noundef nonnull align 8 dereferenceable(80) %this1, ptr noundef nonnull align 8 dereferenceable(16) %5)
  br label %if.end

if.end:                                           ; preds = %if.else, %if.then
  %call = call noundef nonnull align 8 dereferenceable(16) ptr @_ZNSt5dequeIN7rocksdb10MemMappingESaIS1_EE4backEv(ptr noundef nonnull align 8 dereferenceable(80) %this1) #11
  ret ptr %call
}

; Function Attrs: mustprogress uwtable
define linkonce_odr void @_ZNSt5dequeIN7rocksdb10MemMappingESaIS1_EE9push_backEOS1_(ptr noundef nonnull align 8 dereferenceable(80) %this, ptr noundef nonnull align 8 dereferenceable(16) %__x) #0 comdat align 2 {
entry:
  %this.addr = alloca ptr, align 8
  %__x.addr = alloca ptr, align 8
  store ptr %this, ptr %this.addr, align 8
  store ptr %__x, ptr %__x.addr, align 8
  %this1 = load ptr, ptr %this.addr, align 8
  %0 = load ptr, ptr %__x.addr, align 8
  %call = call noundef nonnull align 8 dereferenceable(16) ptr @_ZNSt5dequeIN7rocksdb10MemMappingESaIS1_EE12emplace_backIJS1_EEERS1_DpOT_(ptr noundef nonnull align 8 dereferenceable(80) %this1, ptr noundef nonnull align 8 dereferenceable(16) %0)
  ret void
}

; Function Attrs: mustprogress nounwind uwtable
define linkonce_odr noundef ptr @_ZNK7rocksdb10MemMapping3GetEv(ptr noundef nonnull align 8 dereferenceable(16) %this) #1 comdat align 2 {
entry:
  %this.addr = alloca ptr, align 8
  store ptr %this, ptr %this.addr, align 8
  %this1 = load ptr, ptr %this.addr, align 8
  %addr_ = getelementptr inbounds %"class.rocksdb::MemMapping", ptr %this1, i32 0, i32 0
  %0 = load ptr, ptr %addr_, align 8
  ret ptr %0
}

; Function Attrs: mustprogress uwtable
define noundef ptr @_ZN7rocksdb5Arena20AllocateFromHugePageEm(ptr noundef nonnull align 16 dereferenceable(2288) %this, i64 noundef %bytes) #0 align 2 personality ptr @__gxx_personality_v0 {
entry:
  %this.addr = alloca ptr, align 8
  %bytes.addr = alloca i64, align 8
  %mm = alloca %"class.rocksdb::MemMapping", align 8
  %addr = alloca ptr, align 8
  %exn.slot = alloca ptr, align 8
  %ehselector.slot = alloca i32, align 4
  store ptr %this, ptr %this.addr, align 8
  store i64 %bytes, ptr %bytes.addr, align 8
  %this1 = load ptr, ptr %this.addr, align 8
  %0 = load i64, ptr %bytes.addr, align 8
  call void @_ZN7rocksdb10MemMapping12AllocateHugeEm(ptr sret(%"class.rocksdb::MemMapping") align 8 %mm, i64 noundef %0)
  %call = invoke noundef ptr @_ZNK7rocksdb10MemMapping3GetEv(ptr noundef nonnull align 8 dereferenceable(16) %mm)
          to label %invoke.cont unwind label %lpad

invoke.cont:                                      ; preds = %entry
  store ptr %call, ptr %addr, align 8
  %1 = load ptr, ptr %addr, align 8
  %tobool = icmp ne ptr %1, null
  br i1 %tobool, label %if.then, label %if.end6

if.then:                                          ; preds = %invoke.cont
  %huge_blocks_ = getelementptr inbounds %"class.rocksdb::Arena", ptr %this1, i32 0, i32 5
  invoke void @_ZNSt5dequeIN7rocksdb10MemMappingESaIS1_EE9push_backEOS1_(ptr noundef nonnull align 8 dereferenceable(80) %huge_blocks_, ptr noundef nonnull align 8 dereferenceable(16) %mm)
          to label %invoke.cont2 unwind label %lpad

invoke.cont2:                                     ; preds = %if.then
  %2 = load i64, ptr %bytes.addr, align 8
  %blocks_memory_ = getelementptr inbounds %"class.rocksdb::Arena", ptr %this1, i32 0, i32 11
  %3 = load i64, ptr %blocks_memory_, align 16
  %add = add i64 %3, %2
  store i64 %add, ptr %blocks_memory_, align 16
  %tracker_ = getelementptr inbounds %"class.rocksdb::Arena", ptr %this1, i32 0, i32 12
  %4 = load ptr, ptr %tracker_, align 8
  %cmp = icmp ne ptr %4, null
  br i1 %cmp, label %if.then3, label %if.end

if.then3:                                         ; preds = %invoke.cont2
  %tracker_4 = getelementptr inbounds %"class.rocksdb::Arena", ptr %this1, i32 0, i32 12
  %5 = load ptr, ptr %tracker_4, align 8
  %6 = load i64, ptr %bytes.addr, align 8
  invoke void @_ZN7rocksdb12AllocTracker8AllocateEm(ptr noundef nonnull align 8 dereferenceable(18) %5, i64 noundef %6)
          to label %invoke.cont5 unwind label %lpad

invoke.cont5:                                     ; preds = %if.then3
  br label %if.end

lpad:                                             ; preds = %if.then3, %if.then, %entry
  %7 = landingpad { ptr, i32 }
          cleanup
  %8 = extractvalue { ptr, i32 } %7, 0
  store ptr %8, ptr %exn.slot, align 8
  %9 = extractvalue { ptr, i32 } %7, 1
  store i32 %9, ptr %ehselector.slot, align 4
  call void @_ZN7rocksdb10MemMappingD1Ev(ptr noundef nonnull align 8 dereferenceable(16) %mm) #11
  br label %eh.resume

if.end:                                           ; preds = %invoke.cont5, %invoke.cont2
  br label %if.end6

if.end6:                                          ; preds = %if.end, %invoke.cont
  %10 = load ptr, ptr %addr, align 8
  call void @_ZN7rocksdb10MemMappingD1Ev(ptr noundef nonnull align 8 dereferenceable(16) %mm) #11
  ret ptr %10

eh.resume:                                        ; preds = %lpad
  %exn = load ptr, ptr %exn.slot, align 8
  %sel = load i32, ptr %ehselector.slot, align 4
  %lpad.val = insertvalue { ptr, i32 } poison, ptr %exn, 0
  %lpad.val7 = insertvalue { ptr, i32 } %lpad.val, i32 %sel, 1
  resume { ptr, i32 } %lpad.val7
}