; Function Attrs: mustprogress uwtable
define noundef ptr @_ZN7rocksdb5Arena20AllocateFromHugePageEm(ptr noundef nonnull align 16 dereferenceable(2288) %this, i64 noundef %bytes) local_unnamed_addr #1 align 2 personality ptr @__gxx_personality_v0 {
entry:
  %mm = alloca %"class.rocksdb::MemMapping", align 8
  call void @_ZN7rocksdb10MemMapping12AllocateHugeEm(ptr nonnull sret(%"class.rocksdb::MemMapping") align 8 %mm, i64 noundef %bytes)
  %0 = load ptr, ptr %mm, align 8
  %tobool.not = icmp eq ptr %0, null
  br i1 %tobool.not, label %if.end6, label %if.then

if.then:                                          ; preds = %entry
  %_M_finish.i.i = getelementptr inbounds i8, ptr %this, i64 2200
  %1 = load ptr, ptr %_M_finish.i.i, align 8
  %_M_last.i.i = getelementptr inbounds i8, ptr %this, i64 2216
  %2 = load ptr, ptr %_M_last.i.i, align 8
  %add.ptr.i.i = getelementptr inbounds i8, ptr %2, i64 -16
  %cmp.not.i.i = icmp eq ptr %1, %add.ptr.i.i
  br i1 %cmp.not.i.i, label %if.else.i.i, label %if.then.i.i

if.then.i.i:                                      ; preds = %if.then
  call void @_ZN7rocksdb10MemMappingC1EOS0_(ptr noundef nonnull align 8 dereferenceable(16) %1, ptr noundef nonnull align 8 dereferenceable(16) %mm) #14
  %3 = load ptr, ptr %_M_finish.i.i, align 8
  %incdec.ptr.i.i = getelementptr inbounds i8, ptr %3, i64 16
  store ptr %incdec.ptr.i.i, ptr %_M_finish.i.i, align 8
  br label %invoke.cont2

if.else.i.i:                                      ; preds = %if.then
  %huge_blocks_ = getelementptr inbounds i8, ptr %this, i64 2152
  invoke void @_ZNSt5dequeIN7rocksdb10MemMappingESaIS1_EE16_M_push_back_auxIJS1_EEEvDpOT_(ptr noundef nonnull align 8 dereferenceable(80) %huge_blocks_, ptr noundef nonnull align 8 dereferenceable(16) %mm)
          to label %invoke.cont2 unwind label %lpad

invoke.cont2:                                     ; preds = %if.then.i.i, %if.else.i.i
  %blocks_memory_ = getelementptr inbounds i8, ptr %this, i64 2272
  %4 = load i64, ptr %blocks_memory_, align 16
  %add = add i64 %4, %bytes
  store i64 %add, ptr %blocks_memory_, align 16
  %tracker_ = getelementptr inbounds i8, ptr %this, i64 2280
  %5 = load ptr, ptr %tracker_, align 8
  %cmp.not = icmp eq ptr %5, null
  br i1 %cmp.not, label %if.end6, label %if.then3

if.then3:                                         ; preds = %invoke.cont2
  invoke void @_ZN7rocksdb12AllocTracker8AllocateEm(ptr noundef nonnull align 8 dereferenceable(18) %5, i64 noundef %bytes)
          to label %if.end6 unwind label %lpad

lpad:                                             ; preds = %if.else.i.i, %if.then3
  %6 = landingpad { ptr, i32 }
          cleanup
  call void @_ZN7rocksdb10MemMappingD1Ev(ptr noundef nonnull align 8 dereferenceable(16) %mm) #14
  resume { ptr, i32 } %6

if.end6:                                          ; preds = %invoke.cont2, %if.then3, %entry
  call void @_ZN7rocksdb10MemMappingD1Ev(ptr noundef nonnull align 8 dereferenceable(16) %mm) #14
  ret ptr %0
}